; Function Attrs: nofree norecurse nosync nounwind memory(argmem: readwrite) uwtable
define dso_local void @PHP_MD2Final(ptr noundef writeonly captures(none) %0, ptr noundef captures(none) %1) #2 {
  %3 = getelementptr inbounds nuw i8, ptr %1, i64 64
  %4 = getelementptr inbounds nuw i8, ptr %1, i64 80
  %5 = load i8, ptr %4, align 1, !tbaa !9
  %6 = zext i8 %5 to i32
  %7 = zext i8 %5 to i64
  %8 = getelementptr inbounds nuw i8, ptr %3, i64 %7
  %9 = sub nsw i32 16, %6
  %10 = trunc i32 %9 to i8
  %11 = sext i32 %9 to i64
  tail call void @llvm.memset.p0.i64(ptr nonnull align 1 %8, i8 %10, i64 %11, i1 false)
  br label %12

12:                                               ; preds = %12, %2
  %indvars.iv.i = phi i64 [ 0, %2 ], [ %indvars.iv.next.i, %12 ]
  %13 = getelementptr inbounds nuw i8, ptr %3, i64 %indvars.iv.i
  %14 = load i8, ptr %13, align 1, !tbaa !8
  %15 = and i64 %indvars.iv.i, 4294967279
  %16 = or disjoint i64 %15, 16
  %17 = getelementptr inbounds nuw [48 x i8], ptr %1, i64 0, i64 %16
  store i8 %14, ptr %17, align 1, !tbaa !8
  %18 = getelementptr inbounds nuw [48 x i8], ptr %1, i64 0, i64 %indvars.iv.i
  %19 = load i8, ptr %18, align 1, !tbaa !8
  %20 = xor i8 %19, %14
  %21 = and i64 %indvars.iv.i, 4294967263
  %22 = or disjoint i64 %21, 32
  %23 = getelementptr inbounds nuw [48 x i8], ptr %1, i64 0, i64 %22
  store i8 %20, ptr %23, align 1, !tbaa !8
  %indvars.iv.next.i = add nuw nsw i64 %indvars.iv.i, 1
  %exitcond.not.i = icmp eq i64 %indvars.iv.next.i, 16
  br i1 %exitcond.not.i, label %.preheader.i, label %12

.preheader.i:                                     ; preds = %12, %31
  %.041.i = phi i8 [ %32, %31 ], [ 0, %12 ]
  %.13240.i = phi i8 [ %33, %31 ], [ 0, %12 ]
  br label %24

24:                                               ; preds = %24, %.preheader.i
  %indvars.iv45.i = phi i64 [ 0, %.preheader.i ], [ %indvars.iv.next46.i, %24 ]
  %.139.i = phi i8 [ %.041.i, %.preheader.i ], [ %30, %24 ]
  %25 = getelementptr inbounds nuw [48 x i8], ptr %1, i64 0, i64 %indvars.iv45.i
  %26 = load i8, ptr %25, align 1, !tbaa !8
  %27 = zext i8 %.139.i to i64
  %28 = getelementptr inbounds nuw [256 x i8], ptr @MD2_S, i64 0, i64 %27
  %29 = load i8, ptr %28, align 1, !tbaa !8
  %30 = xor i8 %29, %26
  store i8 %30, ptr %25, align 1, !tbaa !8
  %indvars.iv.next46.i = add nuw nsw i64 %indvars.iv45.i, 1
  %exitcond48.not.i = icmp eq i64 %indvars.iv.next46.i, 48
  br i1 %exitcond48.not.i, label %31, label %24

31:                                               ; preds = %24
  %32 = add i8 %30, %.13240.i
  %33 = add nuw nsw i8 %.13240.i, 1
  %exitcond49.not.i = icmp eq i8 %33, 18
  br i1 %exitcond49.not.i, label %34, label %.preheader.i

34:                                               ; preds = %31
  %35 = getelementptr inbounds nuw i8, ptr %1, i64 48
  %36 = getelementptr inbounds nuw i8, ptr %1, i64 63
  %37 = load i8, ptr %36, align 1, !tbaa !8
  br label %38

38:                                               ; preds = %38, %34
  %indvars.iv50.i = phi i64 [ 0, %34 ], [ %indvars.iv.next51.i, %38 ]
  %.243.i = phi i8 [ %37, %34 ], [ %47, %38 ]
  %39 = getelementptr inbounds nuw i8, ptr %3, i64 %indvars.iv50.i
  %40 = load i8, ptr %39, align 1, !tbaa !8
  %41 = xor i8 %40, %.243.i
  %42 = zext i8 %41 to i64
  %43 = getelementptr inbounds nuw [256 x i8], ptr @MD2_S, i64 0, i64 %42
  %44 = load i8, ptr %43, align 1, !tbaa !8
  %45 = getelementptr inbounds nuw [16 x i8], ptr %35, i64 0, i64 %indvars.iv50.i
  %46 = load i8, ptr %45, align 1, !tbaa !8
  %47 = xor i8 %46, %44
  store i8 %47, ptr %45, align 1, !tbaa !8
  %indvars.iv.next51.i = add nuw nsw i64 %indvars.iv50.i, 1
  %exitcond53.not.i = icmp eq i64 %indvars.iv.next51.i, 16
  br i1 %exitcond53.not.i, label %MD2_Transform.exit, label %38

MD2_Transform.exit:                               ; preds = %38, %MD2_Transform.exit
  %indvars.iv.i10 = phi i64 [ %indvars.iv.next.i11, %MD2_Transform.exit ], [ 0, %38 ]
  %48 = getelementptr inbounds nuw i8, ptr %35, i64 %indvars.iv.i10
  %49 = load i8, ptr %48, align 1, !tbaa !8
  %50 = and i64 %indvars.iv.i10, 4294967279
  %51 = or disjoint i64 %50, 16
  %52 = getelementptr inbounds nuw [48 x i8], ptr %1, i64 0, i64 %51
  store i8 %49, ptr %52, align 1, !tbaa !8
  %53 = getelementptr inbounds nuw [48 x i8], ptr %1, i64 0, i64 %indvars.iv.i10
  %54 = load i8, ptr %53, align 1, !tbaa !8
  %55 = xor i8 %54, %49
  %56 = and i64 %indvars.iv.i10, 4294967263
  %57 = or disjoint i64 %56, 32
  %58 = getelementptr inbounds nuw [48 x i8], ptr %1, i64 0, i64 %57
  store i8 %55, ptr %58, align 1, !tbaa !8
  %indvars.iv.next.i11 = add nuw nsw i64 %indvars.iv.i10, 1
  %exitcond.not.i12 = icmp eq i64 %indvars.iv.next.i11, 16
  br i1 %exitcond.not.i12, label %.preheader.i13, label %MD2_Transform.exit

.preheader.i13:                                   ; preds = %MD2_Transform.exit, %66
  %.041.i14 = phi i8 [ %67, %66 ], [ 0, %MD2_Transform.exit ]
  %.13240.i15 = phi i8 [ %68, %66 ], [ 0, %MD2_Transform.exit ]
  br label %59

59:                                               ; preds = %59, %.preheader.i13
  %indvars.iv45.i16 = phi i64 [ 0, %.preheader.i13 ], [ %indvars.iv.next46.i18, %59 ]
  %.139.i17 = phi i8 [ %.041.i14, %.preheader.i13 ], [ %65, %59 ]
  %60 = getelementptr inbounds nuw [48 x i8], ptr %1, i64 0, i64 %indvars.iv45.i16
  %61 = load i8, ptr %60, align 1, !tbaa !8
  %62 = zext i8 %.139.i17 to i64
  %63 = getelementptr inbounds nuw [256 x i8], ptr @MD2_S, i64 0, i64 %62
  %64 = load i8, ptr %63, align 1, !tbaa !8
  %65 = xor i8 %64, %61
  store i8 %65, ptr %60, align 1, !tbaa !8
  %indvars.iv.next46.i18 = add nuw nsw i64 %indvars.iv45.i16, 1
  %exitcond48.not.i19 = icmp eq i64 %indvars.iv.next46.i18, 48
  br i1 %exitcond48.not.i19, label %66, label %59

66:                                               ; preds = %59
  %67 = add i8 %65, %.13240.i15
  %68 = add nuw nsw i8 %.13240.i15, 1
  %exitcond49.not.i20 = icmp eq i8 %68, 18
  br i1 %exitcond49.not.i20, label %69, label %.preheader.i13

69:                                               ; preds = %66
  %70 = load i8, ptr %36, align 1, !tbaa !8
  br label %71

71:                                               ; preds = %71, %69
  %indvars.iv50.i21 = phi i64 [ 0, %69 ], [ %indvars.iv.next51.i23, %71 ]
  %.243.i22 = phi i8 [ %70, %69 ], [ %78, %71 ]
  %72 = getelementptr inbounds nuw i8, ptr %35, i64 %indvars.iv50.i21
  %73 = load i8, ptr %72, align 1, !tbaa !8
  %74 = xor i8 %73, %.243.i22
  %75 = zext i8 %74 to i64
  %76 = getelementptr inbounds nuw [256 x i8], ptr @MD2_S, i64 0, i64 %75
  %77 = load i8, ptr %76, align 1, !tbaa !8
  %78 = xor i8 %73, %77
  store i8 %78, ptr %72, align 1, !tbaa !8
  %indvars.iv.next51.i23 = add nuw nsw i64 %indvars.iv50.i21, 1
  %exitcond53.not.i24 = icmp eq i64 %indvars.iv.next51.i23, 16
  br i1 %exitcond53.not.i24, label %MD2_Transform.exit25, label %71

MD2_Transform.exit25:                             ; preds = %71
  tail call void @llvm.memcpy.p0.p0.i64(ptr noundef nonnull align 1 dereferenceable(16) %0, ptr noundef nonnull align 1 dereferenceable(16) %1, i64 16, i1 false)
  ret void
}